target datalayout = "e-m:e-p270:32:32-p271:32:32-p272:64:64-i64:64-i128:128-f80:128-n8:16:32:64-S128"
target triple = "x86_64-pc-linux-gnu"

; Function Attrs: inlinehint nounwind uwtable
define internal i32 @sk_EVP_ASYM_CIPHER_push(ptr noundef %0, ptr noundef %1) #5 {
  %3 = alloca ptr, align 8
  %4 = alloca ptr, align 8
  store ptr %0, ptr %3, align 8, !tbaa !57
  store ptr %1, ptr %4, align 8, !tbaa !59
  %5 = load ptr, ptr %3, align 8, !tbaa !57
  %6 = load ptr, ptr %4, align 8, !tbaa !59
  %7 = call i32 @OPENSSL_sk_push(ptr noundef %5, ptr noundef %6)
  ret i32 %7
}

; Function Attrs: nounwind uwtable
define internal i32 @is_asym_cipher_fetchable(ptr noundef %0) #0 {
  %2 = alloca i32, align 4
  %3 = alloca ptr, align 8
  %4 = alloca ptr, align 8
  %5 = alloca ptr, align 8
  %6 = alloca ptr, align 8
  %7 = alloca ptr, align 8
  %8 = alloca i32, align 4
  store ptr %0, ptr %3, align 8, !tbaa !59
  call void @llvm.lifetime.start.p0(i64 8, ptr %4) #7
  call void @llvm.lifetime.start.p0(i64 8, ptr %5) #7
  %9 = call ptr @app_get0_propq()
  store ptr %9, ptr %5, align 8, !tbaa !11
  call void @llvm.lifetime.start.p0(i64 8, ptr %6) #7
  %10 = call ptr @app_get0_libctx()
  store ptr %10, ptr %6, align 8, !tbaa !133
  call void @llvm.lifetime.start.p0(i64 8, ptr %7) #7
  %11 = load ptr, ptr %3, align 8, !tbaa !59
  %12 = call ptr @EVP_ASYM_CIPHER_get0_name(ptr noundef %11)
  store ptr %12, ptr %7, align 8, !tbaa !11
  %13 = call i32 @ERR_set_mark()
  %14 = load ptr, ptr %6, align 8, !tbaa !133
  %15 = load ptr, ptr %7, align 8, !tbaa !11
  %16 = load ptr, ptr %5, align 8, !tbaa !11
  %17 = call ptr @EVP_ASYM_CIPHER_fetch(ptr noundef %14, ptr noundef %15, ptr noundef %16)
  store ptr %17, ptr %4, align 8, !tbaa !59
  %18 = call i32 @ERR_pop_to_mark()
  %19 = load ptr, ptr %4, align 8, !tbaa !59
  %20 = icmp eq ptr %19, null
  br i1 %20, label %21, label %22

21:                                               ; preds = %1
  store i32 0, ptr %2, align 4
  store i32 1, ptr %8, align 4
  br label %24

22:                                               ; preds = %1
  %23 = load ptr, ptr %4, align 8, !tbaa !59
  call void @EVP_ASYM_CIPHER_free(ptr noundef %23)
  store i32 1, ptr %2, align 4
  store i32 1, ptr %8, align 4
  br label %24

24:                                               ; preds = %22, %21
  call void @llvm.lifetime.end.p0(i64 8, ptr %7) #7
  call void @llvm.lifetime.end.p0(i64 8, ptr %6) #7
  call void @llvm.lifetime.end.p0(i64 8, ptr %5) #7
  call void @llvm.lifetime.end.p0(i64 8, ptr %4) #7
  %25 = load i32, ptr %2, align 4
  ret i32 %25
}

; Function Attrs: nounwind uwtable
define internal void @collect_asymciph(ptr noundef %0, ptr noundef %1) #0 {
  %3 = alloca ptr, align 8
  %4 = alloca ptr, align 8
  %5 = alloca ptr, align 8
  store ptr %0, ptr %3, align 8, !tbaa !59
  store ptr %1, ptr %4, align 8, !tbaa !123
  call void @llvm.lifetime.start.p0(i64 8, ptr %5) #7
  %6 = load ptr, ptr %4, align 8, !tbaa !123
  store ptr %6, ptr %5, align 8, !tbaa !57
  %7 = load ptr, ptr %3, align 8, !tbaa !59
  %8 = call i32 @is_asym_cipher_fetchable(ptr noundef %7)
  %9 = icmp ne i32 %8, 0
  br i1 %9, label %10, label %18

10:                                               ; preds = %2
  %11 = load ptr, ptr %5, align 8, !tbaa !57
  %12 = load ptr, ptr %3, align 8, !tbaa !59
  %13 = call i32 @sk_EVP_ASYM_CIPHER_push(ptr noundef %11, ptr noundef %12)
  %14 = icmp sgt i32 %13, 0
  br i1 %14, label %15, label %18

15:                                               ; preds = %10
  %16 = load ptr, ptr %3, align 8, !tbaa !59
  %17 = call i32 @EVP_ASYM_CIPHER_up_ref(ptr noundef %16)
  br label %18

18:                                               ; preds = %15, %10, %2
  call void @llvm.lifetime.end.p0(i64 8, ptr %5) #7
  ret void
}